target datalayout = "e-m:e-p270:32:32-p271:32:32-p272:64:64-i64:64-i128:128-f80:128-n8:16:32:64-S128"
target triple = "x86_64-pc-linux-gnu"

%struct.Vector3 = type { float, float, float }
%struct.BoundingBox = type { %struct.Vector3, %struct.Vector3 }

; Function Attrs: nounwind uwtable
define zeroext i1 @CheckCollisionBoxSphere(ptr noundef byval(%struct.BoundingBox) align 8 %0, <2 x float> %1, float %2, float noundef %3) #10 {
  %5 = alloca %struct.Vector3, align 4
  %6 = alloca { <2 x float>, float }, align 4
  %7 = alloca float, align 4
  %8 = alloca i8, align 1
  %9 = alloca float, align 4
  %10 = getelementptr inbounds nuw { <2 x float>, float }, ptr %6, i32 0, i32 0
  store <2 x float> %1, ptr %10, align 4
  %11 = getelementptr inbounds nuw { <2 x float>, float }, ptr %6, i32 0, i32 1
  store float %2, ptr %11, align 4
  call void @llvm.memcpy.p0.p0.i64(ptr align 4 %5, ptr align 4 %6, i64 12, i1 false)
  store float %3, ptr %7, align 4
  call void @llvm.lifetime.start.p0(i64 1, ptr %8) #16
  store i8 0, ptr %8, align 1
  call void @llvm.lifetime.start.p0(i64 4, ptr %9) #16
  store float 0.000000e+00, ptr %9, align 4
  %12 = getelementptr inbounds nuw %struct.Vector3, ptr %5, i32 0, i32 0
  %13 = load float, ptr %12, align 4
  %14 = getelementptr inbounds nuw %struct.BoundingBox, ptr %0, i32 0, i32 0
  %15 = getelementptr inbounds nuw %struct.Vector3, ptr %14, i32 0, i32 0
  %16 = load float, ptr %15, align 8
  %17 = fcmp olt float %13, %16
  br i1 %17, label %18, label %28

18:                                               ; preds = %4
  %19 = getelementptr inbounds nuw %struct.Vector3, ptr %5, i32 0, i32 0
  %20 = load float, ptr %19, align 4
  %21 = getelementptr inbounds nuw %struct.BoundingBox, ptr %0, i32 0, i32 0
  %22 = getelementptr inbounds nuw %struct.Vector3, ptr %21, i32 0, i32 0
  %23 = load float, ptr %22, align 8
  %24 = fsub float %20, %23
  %25 = call float @powf(float noundef %24, float noundef 2.000000e+00) #16
  %26 = load float, ptr %9, align 4
  %27 = fadd float %26, %25
  store float %27, ptr %9, align 4
  br label %46

28:                                               ; preds = %4
  %29 = getelementptr inbounds nuw %struct.Vector3, ptr %5, i32 0, i32 0
  %30 = load float, ptr %29, align 4
  %31 = getelementptr inbounds nuw %struct.BoundingBox, ptr %0, i32 0, i32 1
  %32 = getelementptr inbounds nuw %struct.Vector3, ptr %31, i32 0, i32 0
  %33 = load float, ptr %32, align 4
  %34 = fcmp ogt float %30, %33
  br i1 %34, label %35, label %45

35:                                               ; preds = %28
  %36 = getelementptr inbounds nuw %struct.Vector3, ptr %5, i32 0, i32 0
  %37 = load float, ptr %36, align 4
  %38 = getelementptr inbounds nuw %struct.BoundingBox, ptr %0, i32 0, i32 1
  %39 = getelementptr inbounds nuw %struct.Vector3, ptr %38, i32 0, i32 0
  %40 = load float, ptr %39, align 4
  %41 = fsub float %37, %40
  %42 = call float @powf(float noundef %41, float noundef 2.000000e+00) #16
  %43 = load float, ptr %9, align 4
  %44 = fadd float %43, %42
  store float %44, ptr %9, align 4
  br label %45

45:                                               ; preds = %35, %28
  br label %46

46:                                               ; preds = %45, %18
  %47 = getelementptr inbounds nuw %struct.Vector3, ptr %5, i32 0, i32 1
  %48 = load float, ptr %47, align 4
  %49 = getelementptr inbounds nuw %struct.BoundingBox, ptr %0, i32 0, i32 0
  %50 = getelementptr inbounds nuw %struct.Vector3, ptr %49, i32 0, i32 1
  %51 = load float, ptr %50, align 4
  %52 = fcmp olt float %48, %51
  br i1 %52, label %53, label %63

53:                                               ; preds = %46
  %54 = getelementptr inbounds nuw %struct.Vector3, ptr %5, i32 0, i32 1
  %55 = load float, ptr %54, align 4
  %56 = getelementptr inbounds nuw %struct.BoundingBox, ptr %0, i32 0, i32 0
  %57 = getelementptr inbounds nuw %struct.Vector3, ptr %56, i32 0, i32 1
  %58 = load float, ptr %57, align 4
  %59 = fsub float %55, %58
  %60 = call float @powf(float noundef %59, float noundef 2.000000e+00) #16
  %61 = load float, ptr %9, align 4
  %62 = fadd float %61, %60
  store float %62, ptr %9, align 4
  br label %81

63:                                               ; preds = %46
  %64 = getelementptr inbounds nuw %struct.Vector3, ptr %5, i32 0, i32 1
  %65 = load float, ptr %64, align 4
  %66 = getelementptr inbounds nuw %struct.BoundingBox, ptr %0, i32 0, i32 1
  %67 = getelementptr inbounds nuw %struct.Vector3, ptr %66, i32 0, i32 1
  %68 = load float, ptr %67, align 4
  %69 = fcmp ogt float %65, %68
  br i1 %69, label %70, label %80

70:                                               ; preds = %63
  %71 = getelementptr inbounds nuw %struct.Vector3, ptr %5, i32 0, i32 1
  %72 = load float, ptr %71, align 4
  %73 = getelementptr inbounds nuw %struct.BoundingBox, ptr %0, i32 0, i32 1
  %74 = getelementptr inbounds nuw %struct.Vector3, ptr %73, i32 0, i32 1
  %75 = load float, ptr %74, align 4
  %76 = fsub float %72, %75
  %77 = call float @powf(float noundef %76, float noundef 2.000000e+00) #16
  %78 = load float, ptr %9, align 4
  %79 = fadd float %78, %77
  store float %79, ptr %9, align 4
  br label %80

80:                                               ; preds = %70, %63
  br label %81

81:                                               ; preds = %80, %53
  %82 = getelementptr inbounds nuw %struct.Vector3, ptr %5, i32 0, i32 2
  %83 = load float, ptr %82, align 4
  %84 = getelementptr inbounds nuw %struct.BoundingBox, ptr %0, i32 0, i32 0
  %85 = getelementptr inbounds nuw %struct.Vector3, ptr %84, i32 0, i32 2
  %86 = load float, ptr %85, align 8
  %87 = fcmp olt float %83, %86
  br i1 %87, label %88, label %98

88:                                               ; preds = %81
  %89 = getelementptr inbounds nuw %struct.Vector3, ptr %5, i32 0, i32 2
  %90 = load float, ptr %89, align 4
  %91 = getelementptr inbounds nuw %struct.BoundingBox, ptr %0, i32 0, i32 0
  %92 = getelementptr inbounds nuw %struct.Vector3, ptr %91, i32 0, i32 2
  %93 = load float, ptr %92, align 8
  %94 = fsub float %90, %93
  %95 = call float @powf(float noundef %94, float noundef 2.000000e+00) #16
  %96 = load float, ptr %9, align 4
  %97 = fadd float %96, %95
  store float %97, ptr %9, align 4
  br label %116

98:                                               ; preds = %81
  %99 = getelementptr inbounds nuw %struct.Vector3, ptr %5, i32 0, i32 2
  %100 = load float, ptr %99, align 4
  %101 = getelementptr inbounds nuw %struct.BoundingBox, ptr %0, i32 0, i32 1
  %102 = getelementptr inbounds nuw %struct.Vector3, ptr %101, i32 0, i32 2
  %103 = load float, ptr %102, align 4
  %104 = fcmp ogt float %100, %103
  br i1 %104, label %105, label %115

105:                                              ; preds = %98
  %106 = getelementptr inbounds nuw %struct.Vector3, ptr %5, i32 0, i32 2
  %107 = load float, ptr %106, align 4
  %108 = getelementptr inbounds nuw %struct.BoundingBox, ptr %0, i32 0, i32 1
  %109 = getelementptr inbounds nuw %struct.Vector3, ptr %108, i32 0, i32 2
  %110 = load float, ptr %109, align 4
  %111 = fsub float %107, %110
  %112 = call float @powf(float noundef %111, float noundef 2.000000e+00) #16
  %113 = load float, ptr %9, align 4
  %114 = fadd float %113, %112
  store float %114, ptr %9, align 4
  br label %115

115:                                              ; preds = %105, %98
  br label %116

116:                                              ; preds = %115, %88
  %117 = load float, ptr %9, align 4
  %118 = load float, ptr %7, align 4
  %119 = load float, ptr %7, align 4
  %120 = fmul float %118, %119
  %121 = fcmp ole float %117, %120
  br i1 %121, label %122, label %123

122:                                              ; preds = %116
  store i8 1, ptr %8, align 1
  br label %123

123:                                              ; preds = %122, %116
  %124 = load i8, ptr %8, align 1, !range !3, !noundef !4
  %125 = trunc i8 %124 to i1
  call void @llvm.lifetime.end.p0(i64 4, ptr %9) #16
  call void @llvm.lifetime.end.p0(i64 1, ptr %8) #16
  ret i1 %125
}