; Function Attrs: mustprogress nofree norecurse nosync nounwind willreturn memory(argmem: read) uwtable
define zeroext i1 @CheckCollisionBoxSphere(ptr noundef readonly byval(%struct.BoundingBox) align 8 captures(none) %0, <2 x float> %1, float %2, float noundef %3) local_unnamed_addr #40 {
  %.sroa.09.0.vec.extract = extractelement <2 x float> %1, i64 0
  %5 = load float, ptr %0, align 8
  %6 = fcmp olt float %.sroa.09.0.vec.extract, %5
  br i1 %6, label %7, label %9

7:                                                ; preds = %4
  %8 = fsub float %.sroa.09.0.vec.extract, %5
  %square34 = fmul float %8, %8
  br label %15

9:                                                ; preds = %4
  %10 = getelementptr inbounds nuw i8, ptr %0, i64 12
  %11 = load float, ptr %10, align 4
  %12 = fcmp ogt float %.sroa.09.0.vec.extract, %11
  br i1 %12, label %13, label %15

13:                                               ; preds = %9
  %14 = fsub float %.sroa.09.0.vec.extract, %11
  %square = fmul float %14, %14
  br label %15

15:                                               ; preds = %9, %13, %7
  %.0 = phi float [ %square34, %7 ], [ %square, %13 ], [ 0.000000e+00, %9 ]
  %.sroa.09.4.vec.extract = extractelement <2 x float> %1, i64 1
  %16 = getelementptr inbounds nuw i8, ptr %0, i64 4
  %17 = load float, ptr %16, align 4
  %18 = fcmp olt float %.sroa.09.4.vec.extract, %17
  br i1 %18, label %19, label %22

19:                                               ; preds = %15
  %20 = fsub float %.sroa.09.4.vec.extract, %17
  %square36 = fmul float %20, %20
  %21 = fadd float %.0, %square36
  br label %29

22:                                               ; preds = %15
  %23 = getelementptr inbounds nuw i8, ptr %0, i64 16
  %24 = load float, ptr %23, align 8
  %25 = fcmp ogt float %.sroa.09.4.vec.extract, %24
  br i1 %25, label %26, label %29

26:                                               ; preds = %22
  %27 = fsub float %.sroa.09.4.vec.extract, %24
  %square35 = fmul float %27, %27
  %28 = fadd float %.0, %square35
  br label %29

29:                                               ; preds = %22, %26, %19
  %.1 = phi float [ %21, %19 ], [ %28, %26 ], [ %.0, %22 ]
  %30 = getelementptr inbounds nuw i8, ptr %0, i64 8
  %31 = load float, ptr %30, align 8
  %32 = fcmp olt float %2, %31
  br i1 %32, label %33, label %36

33:                                               ; preds = %29
  %34 = fsub float %2, %31
  %square38 = fmul float %34, %34
  %35 = fadd float %.1, %square38
  br label %43

36:                                               ; preds = %29
  %37 = getelementptr inbounds nuw i8, ptr %0, i64 20
  %38 = load float, ptr %37, align 4
  %39 = fcmp ogt float %2, %38
  br i1 %39, label %40, label %43

40:                                               ; preds = %36
  %41 = fsub float %2, %38
  %square37 = fmul float %41, %41
  %42 = fadd float %.1, %square37
  br label %43

43:                                               ; preds = %36, %40, %33
  %.2 = phi float [ %35, %33 ], [ %42, %40 ], [ %.1, %36 ]
  %44 = fmul float %3, %3
  %45 = fcmp ole float %.2, %44
  ret i1 %45
}